; ModuleID = '29/1256.c'
source_filename = "29/1256.c"
target datalayout = "e-m:e-p270:32:32-p271:32:32-p272:64:64-i64:64-f80:128-n8:16:32:64-S128"
target triple = "x86_64-pc-linux-gnu"

@.str = private unnamed_addr constant [3 x i8] c"%d\00", align 1
@.str.1 = private unnamed_addr constant [7 x i8] c"%.3lf\0A\00", align 1

; Function Attrs: noinline nounwind uwtable
define dso_local i32 @main() #0 {
  %1 = alloca i32, align 4
  %2 = alloca i32, align 4
  %3 = alloca i32, align 4
  %4 = alloca i32, align 4
  %5 = alloca i32, align 4
  %6 = alloca i32, align 4
  %7 = alloca i32, align 4
  %8 = alloca i32, align 4
  %9 = alloca i32, align 4
  %10 = alloca double, align 8
  store i32 0, i32* %1, align 4
  %11 = call i32 (i8*, ...) @__isoc99_scanf(i8* getelementptr inbounds ([3 x i8], [3 x i8]* @.str, i64 0, i64 0), i32* %6)
  store i32 0, i32* %7, align 4
  br label %12

12:                                               ; preds = %50, %0
  %13 = load i32, i32* %7, align 4
  %14 = load i32, i32* %6, align 4
  %15 = icmp slt i32 %13, %14
  br i1 %15, label %16, label %53

16:                                               ; preds = %12
  store i32 0, i32* %8, align 4
  store i32 1, i32* %9, align 4
  store double 0.000000e+00, double* %10, align 8
  %17 = call i32 (i8*, ...) @__isoc99_scanf(i8* getelementptr inbounds ([3 x i8], [3 x i8]* @.str, i64 0, i64 0), i32* %5)
  %18 = load i32, i32* %5, align 4
  %19 = icmp eq i32 %18, 1
  br i1 %19, label %20, label %22

20:                                               ; preds = %16
  %21 = call i32 (i8*, ...) @printf(i8* getelementptr inbounds ([7 x i8], [7 x i8]* @.str.1, i64 0, i64 0), double 2.000000e+00)
  br label %49

22:                                               ; preds = %16
  store i32 1, i32* %3, align 4
  br label %23

23:                                               ; preds = %42, %22
  %24 = load i32, i32* %3, align 4
  %25 = load i32, i32* %5, align 4
  %26 = add nsw i32 %25, 2
  %27 = icmp slt i32 %24, %26
  br i1 %27, label %28, label %45

28:                                               ; preds = %23
  %29 = load i32, i32* %8, align 4
  %30 = load i32, i32* %9, align 4
  %31 = add nsw i32 %29, %30
  store i32 %31, i32* %2, align 4
  %32 = load i32, i32* %9, align 4
  store i32 %32, i32* %8, align 4
  %33 = load i32, i32* %2, align 4
  store i32 %33, i32* %9, align 4
  %34 = load i32, i32* %9, align 4
  %35 = sitofp i32 %34 to double
  %36 = fmul double 1.000000e+00, %35
  %37 = load i32, i32* %8, align 4
  %38 = sitofp i32 %37 to double
  %39 = fdiv double %36, %38
  %40 = load double, double* %10, align 8
  %41 = fadd double %40, %39
  store double %41, double* %10, align 8
  br label %42

42:                                               ; preds = %28
  %43 = load i32, i32* %3, align 4
  %44 = add nsw i32 %43, 1
  store i32 %44, i32* %3, align 4
  br label %23

45:                                               ; preds = %23
  %46 = load double, double* %10, align 8
  %47 = fsub double %46, 1.000000e+00
  %48 = call i32 (i8*, ...) @printf(i8* getelementptr inbounds ([7 x i8], [7 x i8]* @.str.1, i64 0, i64 0), double %47)
  br label %49

49:                                               ; preds = %45, %20
  br label %50

50:                                               ; preds = %49
  %51 = load i32, i32* %7, align 4
  %52 = add nsw i32 %51, 1
  store i32 %52, i32* %7, align 4
  br label %12

53:                                               ; preds = %12
  ret i32 0
}

declare dso_local i32 @__isoc99_scanf(i8*, ...) #1

declare dso_local i32 @printf(i8*, ...) #1


!llvm.module.flags = !{!0}
!llvm.ident = !{!1}

!0 = !{i32 1, !"wchar_size", i32 4}
!1 = !{!"clang version 10.0.0-4ubuntu1 "}
