; ModuleID = 'source-C-CXX/28/1256.c'
source_filename = "source-C-CXX/28/1256.c"
target datalayout = "e-m:e-p270:32:32-p271:32:32-p272:64:64-i64:64-f80:128-n8:16:32:64-S128"
target triple = "x86_64-pc-linux-gnu"

@.str = private unnamed_addr constant [3 x i8] c"%d\00", align 1
@.str.1 = private unnamed_addr constant [7 x i8] c"%.3lf\0A\00", align 1

; Function Attrs: nofree nounwind sspstrong uwtable
define dso_local i32 @main() local_unnamed_addr #0 {
  %1 = alloca i32, align 4
  %2 = alloca i32, align 4
  %3 = bitcast i32* %1 to i8*
  call void @llvm.lifetime.start.p0i8(i64 4, i8* nonnull %3) #3
  %4 = bitcast i32* %2 to i8*
  call void @llvm.lifetime.start.p0i8(i64 4, i8* nonnull %4) #3
  %5 = call i32 (i8*, ...) @__isoc99_scanf(i8* getelementptr inbounds ([3 x i8], [3 x i8]* @.str, i64 0, i64 0), i32* nonnull %2)
  %6 = load i32, i32* %2, align 4, !tbaa !5
  %7 = icmp sgt i32 %6, 0
  br i1 %7, label %8, label %59

8:                                                ; preds = %0, %53
  %9 = phi i32 [ %56, %53 ], [ 0, %0 ]
  %10 = call i32 (i8*, ...) @__isoc99_scanf(i8* getelementptr inbounds ([3 x i8], [3 x i8]* @.str, i64 0, i64 0), i32* nonnull %1)
  %11 = load i32, i32* %1, align 4, !tbaa !5
  %12 = icmp eq i32 %11, 1
  br i1 %12, label %53, label %13

13:                                               ; preds = %8
  %14 = icmp sgt i32 %11, -1
  br i1 %14, label %15, label %50

15:                                               ; preds = %13
  %16 = add i32 %11, 1
  %17 = and i32 %16, 1
  %18 = icmp eq i32 %11, 0
  br i1 %18, label %38, label %19

19:                                               ; preds = %15
  %20 = and i32 %16, -2
  br label %21

21:                                               ; preds = %21, %19
  %22 = phi double [ 0.000000e+00, %19 ], [ %35, %21 ]
  %23 = phi i32 [ 1, %19 ], [ %31, %21 ]
  %24 = phi i32 [ 0, %19 ], [ %26, %21 ]
  %25 = phi i32 [ %20, %19 ], [ %36, %21 ]
  %26 = add nsw i32 %23, %24
  %27 = sitofp i32 %26 to double
  %28 = sitofp i32 %23 to double
  %29 = fdiv double %27, %28
  %30 = fadd double %22, %29
  %31 = add nsw i32 %26, %23
  %32 = sitofp i32 %31 to double
  %33 = sitofp i32 %26 to double
  %34 = fdiv double %32, %33
  %35 = fadd double %30, %34
  %36 = add i32 %25, -2
  %37 = icmp eq i32 %36, 0
  br i1 %37, label %38, label %21, !llvm.loop !9

38:                                               ; preds = %21, %15
  %39 = phi double [ undef, %15 ], [ %35, %21 ]
  %40 = phi double [ 0.000000e+00, %15 ], [ %35, %21 ]
  %41 = phi i32 [ 1, %15 ], [ %31, %21 ]
  %42 = phi i32 [ 0, %15 ], [ %26, %21 ]
  %43 = icmp eq i32 %17, 0
  br i1 %43, label %50, label %44

44:                                               ; preds = %38
  %45 = add nsw i32 %41, %42
  %46 = sitofp i32 %45 to double
  %47 = sitofp i32 %41 to double
  %48 = fdiv double %46, %47
  %49 = fadd double %40, %48
  br label %50

50:                                               ; preds = %44, %38, %13
  %51 = phi double [ 0.000000e+00, %13 ], [ %39, %38 ], [ %49, %44 ]
  %52 = fadd double %51, -1.000000e+00
  br label %53

53:                                               ; preds = %8, %50
  %54 = phi double [ %52, %50 ], [ 2.000000e+00, %8 ]
  %55 = call i32 (i8*, ...) @printf(i8* nonnull dereferenceable(1) getelementptr inbounds ([7 x i8], [7 x i8]* @.str.1, i64 0, i64 0), double %54)
  %56 = add nuw nsw i32 %9, 1
  %57 = load i32, i32* %2, align 4, !tbaa !5
  %58 = icmp slt i32 %56, %57
  br i1 %58, label %8, label %59, !llvm.loop !11

59:                                               ; preds = %53, %0
  call void @llvm.lifetime.end.p0i8(i64 4, i8* nonnull %4) #3
  call void @llvm.lifetime.end.p0i8(i64 4, i8* nonnull %3) #3
  ret i32 0
}

; Function Attrs: argmemonly mustprogress nofree nosync nounwind willreturn
declare void @llvm.lifetime.start.p0i8(i64 immarg, i8* nocapture) #1

; Function Attrs: nofree nounwind
declare noundef i32 @__isoc99_scanf(i8* nocapture noundef readonly, ...) local_unnamed_addr #2

; Function Attrs: nofree nounwind
declare noundef i32 @printf(i8* nocapture noundef readonly, ...) local_unnamed_addr #2

; Function Attrs: argmemonly mustprogress nofree nosync nounwind willreturn
declare void @llvm.lifetime.end.p0i8(i64 immarg, i8* nocapture) #1


!llvm.module.flags = !{!0, !1, !2, !3}
!llvm.ident = !{!4}

!0 = !{i32 1, !"wchar_size", i32 4}
!1 = !{i32 7, !"PIC Level", i32 2}
!2 = !{i32 7, !"PIE Level", i32 2}
!3 = !{i32 7, !"uwtable", i32 1}
!4 = !{!"clang version 13.0.0"}
!5 = !{!6, !6, i64 0}
!6 = !{!"int", !7, i64 0}
!7 = !{!"omnipotent char", !8, i64 0}
!8 = !{!"Simple C/C++ TBAA"}
!9 = distinct !{!9, !10}
!10 = !{!"llvm.loop.mustprogress"}
!11 = distinct !{!11, !10}
